; Function Attrs: mustprogress uwtable
define hidden void @_ZNK4cvc58internal7printer3ast10AstPrinter8toStreamERSoNS0_4kind6Kind_tE(ptr nonnull readnone align 8 captures(none) %0, ptr noundef nonnull align 8 dereferenceable(8) %1, i32 noundef %2) unnamed_addr #3 align 2 personality ptr @__gxx_personality_v0 {
  %4 = alloca %"class.std::__cxx11::basic_string", align 8
  call void @llvm.lifetime.start.p0(i64 32, ptr nonnull %4) #21
  call void @_ZN4cvc58internal4kind12kindToStringB5cxx11ENS1_6Kind_tE(ptr dead_on_unwind nonnull writable sret(%"class.std::__cxx11::basic_string") align 8 %4, i32 noundef %2)
  %5 = load ptr, ptr %4, align 8, !tbaa !15
  %6 = getelementptr inbounds nuw i8, ptr %4, i64 8
  %7 = load i64, ptr %6, align 8, !tbaa !11
  %8 = invoke noundef nonnull align 8 dereferenceable(8) ptr @_ZSt16__ostream_insertIcSt11char_traitsIcEERSt13basic_ostreamIT_T0_ES6_PKS3_l(ptr noundef nonnull align 8 dereferenceable(8) %1, ptr noundef %5, i64 noundef %7)
          to label %_ZStlsIcSt11char_traitsIcESaIcEERSt13basic_ostreamIT_T0_ES7_RKNSt7__cxx1112basic_stringIS4_S5_T1_EE.exit unwind label %16

_ZStlsIcSt11char_traitsIcESaIcEERSt13basic_ostreamIT_T0_ES7_RKNSt7__cxx1112basic_stringIS4_S5_T1_EE.exit: ; preds = %3
  %9 = load ptr, ptr %4, align 8, !tbaa !15
  %10 = getelementptr inbounds nuw i8, ptr %4, i64 16
  %11 = icmp eq ptr %9, %10
  br i1 %11, label %_ZNKSt7__cxx1112basic_stringIcSt11char_traitsIcESaIcEE11_M_is_localEv.exit.thread.i.i, label %_ZNKSt7__cxx1112basic_stringIcSt11char_traitsIcESaIcEE11_M_is_localEv.exit.i.i

_ZNKSt7__cxx1112basic_stringIcSt11char_traitsIcESaIcEE11_M_is_localEv.exit.thread.i.i: ; preds = %_ZStlsIcSt11char_traitsIcESaIcEERSt13basic_ostreamIT_T0_ES7_RKNSt7__cxx1112basic_stringIS4_S5_T1_EE.exit
  %12 = load i64, ptr %6, align 8, !tbaa !11
  %13 = icmp ult i64 %12, 16
  call void @llvm.assume(i1 %13)
  br label %_ZNSt7__cxx1112basic_stringIcSt11char_traitsIcESaIcEED2Ev.exit

_ZNKSt7__cxx1112basic_stringIcSt11char_traitsIcESaIcEE11_M_is_localEv.exit.i.i: ; preds = %_ZStlsIcSt11char_traitsIcESaIcEERSt13basic_ostreamIT_T0_ES7_RKNSt7__cxx1112basic_stringIS4_S5_T1_EE.exit
  %14 = load i64, ptr %10, align 8, !tbaa !14
  %15 = add i64 %14, 1
  call void @_ZdlPvm(ptr noundef %9, i64 noundef %15) #22
  br label %_ZNSt7__cxx1112basic_stringIcSt11char_traitsIcESaIcEED2Ev.exit

_ZNSt7__cxx1112basic_stringIcSt11char_traitsIcESaIcEED2Ev.exit: ; preds = %_ZNKSt7__cxx1112basic_stringIcSt11char_traitsIcESaIcEE11_M_is_localEv.exit.thread.i.i, %_ZNKSt7__cxx1112basic_stringIcSt11char_traitsIcESaIcEE11_M_is_localEv.exit.i.i
  call void @llvm.lifetime.end.p0(i64 32, ptr nonnull %4) #21
  ret void

16:                                               ; preds = %3
  %17 = landingpad { ptr, i32 }
          cleanup
  %18 = load ptr, ptr %4, align 8, !tbaa !15
  %19 = getelementptr inbounds nuw i8, ptr %4, i64 16
  %20 = icmp eq ptr %18, %19
  br i1 %20, label %_ZNKSt7__cxx1112basic_stringIcSt11char_traitsIcESaIcEE11_M_is_localEv.exit.thread.i.i4, label %_ZNKSt7__cxx1112basic_stringIcSt11char_traitsIcESaIcEE11_M_is_localEv.exit.i.i3

_ZNKSt7__cxx1112basic_stringIcSt11char_traitsIcESaIcEE11_M_is_localEv.exit.thread.i.i4: ; preds = %16
  %21 = load i64, ptr %6, align 8, !tbaa !11
  %22 = icmp ult i64 %21, 16
  call void @llvm.assume(i1 %22)
  br label %_ZNSt7__cxx1112basic_stringIcSt11char_traitsIcESaIcEED2Ev.exit5

_ZNKSt7__cxx1112basic_stringIcSt11char_traitsIcESaIcEE11_M_is_localEv.exit.i.i3: ; preds = %16
  %23 = load i64, ptr %19, align 8, !tbaa !14
  %24 = add i64 %23, 1
  call void @_ZdlPvm(ptr noundef %18, i64 noundef %24) #22
  br label %_ZNSt7__cxx1112basic_stringIcSt11char_traitsIcESaIcEED2Ev.exit5

_ZNSt7__cxx1112basic_stringIcSt11char_traitsIcESaIcEED2Ev.exit5: ; preds = %_ZNKSt7__cxx1112basic_stringIcSt11char_traitsIcESaIcEE11_M_is_localEv.exit.thread.i.i4, %_ZNKSt7__cxx1112basic_stringIcSt11char_traitsIcESaIcEE11_M_is_localEv.exit.i.i3
  call void @llvm.lifetime.end.p0(i64 32, ptr nonnull %4) #21
  resume { ptr, i32 } %17
}